target datalayout = "e-m:e-p270:32:32-p271:32:32-p272:64:64-i64:64-i128:128-f80:128-n8:16:32:64-S128"
target triple = "x86_64-pc-linux-gnu"

%struct.AVFilterContext = type { ptr, ptr, ptr, ptr, ptr, i32, ptr, ptr, i32, ptr, ptr, i32, i32, ptr, ptr, ptr, ptr, i32, ptr, i32, i32 }
%struct.ShufflePixelsContext = type { ptr, i32, i32, i32, i32, i64, i32, i32, [4 x i32], [4 x i32], [4 x i32], i32, ptr, ptr, %struct.AVLFG, ptr }
%struct.AVLFG = type { [64 x i32], i32 }
%struct.ThreadData = type { ptr, ptr }
%struct.AVFilterLink = type { ptr, ptr, ptr, ptr, i32, i32, i32, i32, %struct.AVRational, i32, i32, i32, %struct.AVChannelLayout, %struct.AVRational, ptr, i32, %struct.AVFilterFormatsConfig, %struct.AVFilterFormatsConfig }
%struct.AVChannelLayout = type { i32, i32, %union.anon.1, ptr }
%union.anon.1 = type { i64 }
%struct.AVRational = type { i32, i32 }
%struct.AVFilterFormatsConfig = type { ptr, ptr, ptr, ptr, ptr }
%struct.AVFrame = type { [8 x ptr], [8 x i32], ptr, i32, i32, i32, i32, i32, %struct.AVRational, i64, i64, %struct.AVRational, i32, ptr, i32, i32, [8 x ptr], ptr, i32, ptr, i32, i32, i32, i32, i32, i32, i32, i64, ptr, i32, ptr, ptr, i64, i64, i64, i64, ptr, %struct.AVChannelLayout, i64 }

; Function Attrs: nounwind uwtable
define internal i32 @filter_frame(ptr noundef %0, ptr noundef %1) #1 {
  %3 = alloca i32, align 4
  %4 = alloca ptr, align 8
  %5 = alloca ptr, align 8
  %6 = alloca ptr, align 8
  %7 = alloca ptr, align 8
  %8 = alloca ptr, align 8
  %9 = alloca %struct.ThreadData, align 8
  %10 = alloca i32, align 4
  %11 = alloca i32, align 4
  store ptr %0, ptr %4, align 8, !tbaa !24
  store ptr %1, ptr %5, align 8, !tbaa !26
  call void @llvm.lifetime.start.p0(i64 8, ptr %6) #9
  %12 = load ptr, ptr %4, align 8, !tbaa !24
  %13 = getelementptr inbounds nuw %struct.AVFilterLink, ptr %12, i32 0, i32 2
  %14 = load ptr, ptr %13, align 8, !tbaa !28
  store ptr %14, ptr %6, align 8, !tbaa !4
  call void @llvm.lifetime.start.p0(i64 8, ptr %7) #9
  %15 = load ptr, ptr %6, align 8, !tbaa !4
  %16 = getelementptr inbounds nuw %struct.AVFilterContext, ptr %15, i32 0, i32 9
  %17 = load ptr, ptr %16, align 8, !tbaa !9
  store ptr %17, ptr %7, align 8, !tbaa !22
  call void @llvm.lifetime.start.p0(i64 8, ptr %8) #9
  %18 = load ptr, ptr %6, align 8, !tbaa !4
  %19 = getelementptr inbounds nuw %struct.AVFilterContext, ptr %18, i32 0, i32 7
  %20 = load ptr, ptr %19, align 8, !tbaa !36
  %21 = getelementptr inbounds ptr, ptr %20, i64 0
  %22 = load ptr, ptr %21, align 8, !tbaa !24
  %23 = load ptr, ptr %5, align 8, !tbaa !26
  %24 = getelementptr inbounds nuw %struct.AVFrame, ptr %23, i32 0, i32 3
  %25 = load i32, ptr %24, align 8, !tbaa !37
  %26 = load ptr, ptr %5, align 8, !tbaa !26
  %27 = getelementptr inbounds nuw %struct.AVFrame, ptr %26, i32 0, i32 4
  %28 = load i32, ptr %27, align 4, !tbaa !43
  %29 = call ptr @ff_get_video_buffer(ptr noundef %22, i32 noundef %25, i32 noundef %28)
  store ptr %29, ptr %8, align 8, !tbaa !26
  call void @llvm.lifetime.start.p0(i64 16, ptr %9) #9
  call void @llvm.lifetime.start.p0(i64 4, ptr %10) #9
  %30 = load ptr, ptr %8, align 8, !tbaa !26
  %31 = icmp ne ptr %30, null
  br i1 %31, label %33, label %32

32:                                               ; preds = %2
  store i32 -12, ptr %10, align 4, !tbaa !44
  br label %74

33:                                               ; preds = %2
  %34 = load ptr, ptr %8, align 8, !tbaa !26
  %35 = load ptr, ptr %5, align 8, !tbaa !26
  %36 = call i32 @av_frame_copy_props(ptr noundef %34, ptr noundef %35)
  store i32 %36, ptr %10, align 4, !tbaa !44
  %37 = load i32, ptr %10, align 4, !tbaa !44
  %38 = icmp slt i32 %37, 0
  br i1 %38, label %39, label %40

39:                                               ; preds = %33
  call void @av_frame_free(ptr noundef %8)
  br label %74

40:                                               ; preds = %33
  %41 = load ptr, ptr %8, align 8, !tbaa !26
  %42 = getelementptr inbounds nuw %struct.ThreadData, ptr %9, i32 0, i32 1
  store ptr %41, ptr %42, align 8, !tbaa !45
  %43 = load ptr, ptr %5, align 8, !tbaa !26
  %44 = getelementptr inbounds nuw %struct.ThreadData, ptr %9, i32 0, i32 0
  store ptr %43, ptr %44, align 8, !tbaa !47
  %45 = load ptr, ptr %6, align 8, !tbaa !4
  %46 = load ptr, ptr %7, align 8, !tbaa !22
  %47 = getelementptr inbounds nuw %struct.ShufflePixelsContext, ptr %46, i32 0, i32 15
  %48 = load ptr, ptr %47, align 8, !tbaa !48
  %49 = load ptr, ptr %7, align 8, !tbaa !22
  %50 = getelementptr inbounds nuw %struct.ShufflePixelsContext, ptr %49, i32 0, i32 10
  %51 = getelementptr inbounds [4 x i32], ptr %50, i64 0, i64 1
  %52 = load i32, ptr %51, align 4, !tbaa !44
  %53 = load ptr, ptr %6, align 8, !tbaa !4
  %54 = call i32 @ff_filter_get_nb_threads(ptr noundef %53) #10
  %55 = icmp sgt i32 %52, %54
  br i1 %55, label %56, label %59

56:                                               ; preds = %40
  %57 = load ptr, ptr %6, align 8, !tbaa !4
  %58 = call i32 @ff_filter_get_nb_threads(ptr noundef %57) #10
  br label %64

59:                                               ; preds = %40
  %60 = load ptr, ptr %7, align 8, !tbaa !22
  %61 = getelementptr inbounds nuw %struct.ShufflePixelsContext, ptr %60, i32 0, i32 10
  %62 = getelementptr inbounds [4 x i32], ptr %61, i64 0, i64 1
  %63 = load i32, ptr %62, align 4, !tbaa !44
  br label %64

64:                                               ; preds = %59, %56
  %65 = phi i32 [ %58, %56 ], [ %63, %59 ]
  %66 = call i32 @ff_filter_execute(ptr noundef %45, ptr noundef %48, ptr noundef %9, ptr noundef null, i32 noundef %65)
  call void @av_frame_free(ptr noundef %5)
  %67 = load ptr, ptr %6, align 8, !tbaa !4
  %68 = getelementptr inbounds nuw %struct.AVFilterContext, ptr %67, i32 0, i32 7
  %69 = load ptr, ptr %68, align 8, !tbaa !36
  %70 = getelementptr inbounds ptr, ptr %69, i64 0
  %71 = load ptr, ptr %70, align 8, !tbaa !24
  %72 = load ptr, ptr %8, align 8, !tbaa !26
  %73 = call i32 @ff_filter_frame(ptr noundef %71, ptr noundef %72)
  store i32 %73, ptr %3, align 4
  store i32 1, ptr %11, align 4
  br label %76

74:                                               ; preds = %39, %32
  call void @av_frame_free(ptr noundef %5)
  %75 = load i32, ptr %10, align 4, !tbaa !44
  store i32 %75, ptr %3, align 4
  store i32 1, ptr %11, align 4
  br label %76

76:                                               ; preds = %74, %64
  call void @llvm.lifetime.end.p0(i64 4, ptr %10) #9
  call void @llvm.lifetime.end.p0(i64 16, ptr %9) #9
  call void @llvm.lifetime.end.p0(i64 8, ptr %8) #9
  call void @llvm.lifetime.end.p0(i64 8, ptr %7) #9
  call void @llvm.lifetime.end.p0(i64 8, ptr %6) #9
  %77 = load i32, ptr %3, align 4
  ret i32 %77
}