; Function Attrs: nounwind uwtable
define internal i32 @filter_frame(ptr noundef readonly captures(none) %0, ptr noundef %1) #1 {
  %3 = alloca ptr, align 8
  %4 = alloca ptr, align 8
  %5 = alloca %struct.ThreadData, align 8
  store ptr %1, ptr %3, align 8, !tbaa !20
  %6 = getelementptr inbounds nuw i8, ptr %0, i64 16
  %7 = load ptr, ptr %6, align 8, !tbaa !22
  %8 = getelementptr inbounds nuw i8, ptr %7, i64 72
  %9 = load ptr, ptr %8, align 8, !tbaa !4
  call void @llvm.lifetime.start.p0(i64 8, ptr nonnull %4) #9
  %10 = getelementptr inbounds nuw i8, ptr %7, i64 56
  %11 = load ptr, ptr %10, align 8, !tbaa !31
  %12 = load ptr, ptr %11, align 8, !tbaa !32
  %13 = getelementptr inbounds nuw i8, ptr %1, i64 104
  %14 = load i32, ptr %13, align 8, !tbaa !34
  %15 = getelementptr inbounds nuw i8, ptr %1, i64 108
  %16 = load i32, ptr %15, align 4, !tbaa !40
  %17 = tail call ptr @ff_get_video_buffer(ptr noundef %12, i32 noundef %14, i32 noundef %16) #9
  store ptr %17, ptr %4, align 8, !tbaa !20
  call void @llvm.lifetime.start.p0(i64 16, ptr nonnull %5) #9
  %.not = icmp eq ptr %17, null
  br i1 %.not, label %33, label %18

18:                                               ; preds = %2
  %19 = tail call i32 @av_frame_copy_props(ptr noundef nonnull %17, ptr noundef nonnull %1) #9
  %20 = icmp slt i32 %19, 0
  br i1 %20, label %21, label %22

21:                                               ; preds = %18
  call void @av_frame_free(ptr noundef nonnull %4) #9
  br label %33

22:                                               ; preds = %18
  %23 = getelementptr inbounds nuw i8, ptr %5, i64 8
  store ptr %17, ptr %23, align 8, !tbaa !41
  store ptr %1, ptr %5, align 8, !tbaa !43
  %24 = getelementptr inbounds nuw i8, ptr %9, i64 376
  %25 = load ptr, ptr %24, align 8, !tbaa !44
  %26 = getelementptr inbounds nuw i8, ptr %9, i64 76
  %27 = load i32, ptr %26, align 4, !tbaa !48
  %28 = tail call i32 @ff_filter_get_nb_threads(ptr noundef nonnull %7) #10
  %. = tail call i32 @llvm.smin.i32(i32 %27, i32 %28)
  %29 = call i32 @ff_filter_execute(ptr noundef nonnull %7, ptr noundef %25, ptr noundef nonnull %5, ptr noundef null, i32 noundef %.) #9
  call void @av_frame_free(ptr noundef nonnull %3) #9
  %30 = load ptr, ptr %10, align 8, !tbaa !31
  %31 = load ptr, ptr %30, align 8, !tbaa !32
  %32 = call i32 @ff_filter_frame(ptr noundef %31, ptr noundef nonnull %17) #9
  br label %34

33:                                               ; preds = %2, %21
  %.0 = phi i32 [ %19, %21 ], [ -12, %2 ]
  call void @av_frame_free(ptr noundef nonnull %3) #9
  br label %34

34:                                               ; preds = %33, %22
  %.012 = phi i32 [ %.0, %33 ], [ %32, %22 ]
  call void @llvm.lifetime.end.p0(i64 16, ptr nonnull %5) #9
  call void @llvm.lifetime.end.p0(i64 8, ptr nonnull %4) #9
  ret i32 %.012
}